; Function Attrs: mustprogress uwtable
define void @_ZN7testing16AssertionFailureERKNS_7MessageE(ptr dead_on_unwind noalias writable sret(%"class.testing::AssertionResult") align 8 %0, ptr noundef nonnull align 8 dereferenceable(8) %1) local_unnamed_addr #3 personality ptr @__gxx_personality_v0 {
  %3 = alloca %"class.testing::AssertionResult", align 8
  call void @llvm.lifetime.start.p0(i64 16, ptr nonnull %3) #57
  store i8 0, ptr %3, align 8, !tbaa !3, !alias.scope !34
  %4 = getelementptr inbounds nuw i8, ptr %3, i64 8
  store ptr null, ptr %4, align 8, !tbaa !29, !alias.scope !34
  %5 = invoke noundef nonnull align 8 dereferenceable(16) ptr @_ZN7testing15AssertionResultlsINS_7MessageEEERS0_RKT_(ptr noundef nonnull align 8 dereferenceable(16) %3, ptr noundef nonnull align 8 dereferenceable(8) %1)
          to label %6 unwind label %18

6:                                                ; preds = %2
  invoke void @_ZN7testing15AssertionResultC1ERKS0_(ptr noundef nonnull align 8 dereferenceable(16) %0, ptr noundef nonnull align 8 dereferenceable(16) %5)
          to label %7 unwind label %18

7:                                                ; preds = %6
  %8 = load ptr, ptr %4, align 8, !tbaa !18
  %.not.i.i = icmp eq ptr %8, null
  br i1 %.not.i.i, label %_ZN7testing15AssertionResultD2Ev.exit, label %9

9:                                                ; preds = %7
  %10 = load ptr, ptr %8, align 8, !tbaa !22
  %11 = getelementptr inbounds nuw i8, ptr %8, i64 16
  %12 = icmp eq ptr %10, %11
  br i1 %12, label %_ZNKSt7__cxx1112basic_stringIcSt11char_traitsIcESaIcEE11_M_is_localEv.exit.thread.i.i.i.i.i, label %_ZNKSt7__cxx1112basic_stringIcSt11char_traitsIcESaIcEE11_M_is_localEv.exit.i.i.i.i.i

_ZNKSt7__cxx1112basic_stringIcSt11char_traitsIcESaIcEE11_M_is_localEv.exit.thread.i.i.i.i.i: ; preds = %9
  %13 = getelementptr inbounds nuw i8, ptr %8, i64 8
  %14 = load i64, ptr %13, align 8, !tbaa !25
  %15 = icmp ult i64 %14, 16
  call void @llvm.assume(i1 %15)
  br label %_ZNKSt14default_deleteINSt7__cxx1112basic_stringIcSt11char_traitsIcESaIcEEEEclEPS5_.exit.i.i

_ZNKSt7__cxx1112basic_stringIcSt11char_traitsIcESaIcEE11_M_is_localEv.exit.i.i.i.i.i: ; preds = %9
  %16 = load i64, ptr %11, align 8, !tbaa !27
  %17 = add i64 %16, 1
  call void @_ZdlPvm(ptr noundef %10, i64 noundef %17) #58
  br label %_ZNKSt14default_deleteINSt7__cxx1112basic_stringIcSt11char_traitsIcESaIcEEEEclEPS5_.exit.i.i

_ZNKSt14default_deleteINSt7__cxx1112basic_stringIcSt11char_traitsIcESaIcEEEEclEPS5_.exit.i.i: ; preds = %_ZNKSt7__cxx1112basic_stringIcSt11char_traitsIcESaIcEE11_M_is_localEv.exit.i.i.i.i.i, %_ZNKSt7__cxx1112basic_stringIcSt11char_traitsIcESaIcEE11_M_is_localEv.exit.thread.i.i.i.i.i
  call void @_ZdlPvm(ptr noundef nonnull %8, i64 noundef 32) #58
  br label %_ZN7testing15AssertionResultD2Ev.exit

_ZN7testing15AssertionResultD2Ev.exit:            ; preds = %7, %_ZNKSt14default_deleteINSt7__cxx1112basic_stringIcSt11char_traitsIcESaIcEEEEclEPS5_.exit.i.i
  call void @llvm.lifetime.end.p0(i64 16, ptr nonnull %3) #57
  ret void

18:                                               ; preds = %6, %2
  %19 = landingpad { ptr, i32 }
          cleanup
  call void @_ZN7testing15AssertionResultD2Ev(ptr noundef nonnull align 8 dereferenceable(16) %3) #57
  call void @llvm.lifetime.end.p0(i64 16, ptr nonnull %3) #57
  resume { ptr, i32 } %19
}